target datalayout = "e-m:e-p270:32:32-p271:32:32-p272:64:64-i64:64-i128:128-f80:128-n8:16:32:64-S128"
target triple = "x86_64-pc-linux-gnu"

%struct.pcapng_block_header_s = type { i32, i32 }
%struct.wtapng_if_descr_mandatory_s = type { i32, i64, i32, i32, i8, ptr }
%struct.pcapng_interface_description_block_s = type { i16, i16, i32 }
%struct.compute_options_size_t = type { i32, ptr }
%struct.pcapng_option_header = type { i16, i16 }
%struct.write_options_t = type { ptr, ptr, ptr }

; Function Attrs: nounwind uwtable
define internal i32 @pcapng_write_option_eofopt(ptr noundef %0, ptr noundef %1) #0 {
  %3 = alloca i32, align 4
  %4 = alloca ptr, align 8
  %5 = alloca ptr, align 8
  %6 = alloca %struct.pcapng_option_header, align 2
  store ptr %0, ptr %4, align 8
  store ptr %1, ptr %5, align 8
  %7 = getelementptr inbounds %struct.pcapng_option_header, ptr %6, i32 0, i32 0
  store i16 0, ptr %7, align 2
  %8 = getelementptr inbounds %struct.pcapng_option_header, ptr %6, i32 0, i32 1
  store i16 0, ptr %8, align 2
  %9 = load ptr, ptr %4, align 8
  %10 = load ptr, ptr %5, align 8
  %11 = call i32 @wtap_dump_file_write(ptr noundef %9, ptr noundef %6, i64 noundef 4, ptr noundef %10)
  %12 = icmp ne i32 %11, 0
  br i1 %12, label %14, label %13

13:                                               ; preds = %2
  store i32 0, ptr %3, align 4
  br label %15

14:                                               ; preds = %2
  store i32 1, ptr %3, align 4
  br label %15

15:                                               ; preds = %14, %13
  %16 = load i32, ptr %3, align 4
  ret i32 %16
}

; Function Attrs: nounwind uwtable
define internal i32 @write_options(ptr noundef %0, ptr noundef %1, ptr noundef %2, ptr noundef %3) #0 {
  %5 = alloca i32, align 4
  %6 = alloca ptr, align 8
  %7 = alloca ptr, align 8
  %8 = alloca ptr, align 8
  %9 = alloca ptr, align 8
  %10 = alloca %struct.write_options_t, align 8
  store ptr %0, ptr %6, align 8
  store ptr %1, ptr %7, align 8
  store ptr %2, ptr %8, align 8
  store ptr %3, ptr %9, align 8
  %11 = load ptr, ptr %6, align 8
  %12 = getelementptr inbounds %struct.write_options_t, ptr %10, i32 0, i32 0
  store ptr %11, ptr %12, align 8
  %13 = load ptr, ptr %9, align 8
  %14 = getelementptr inbounds %struct.write_options_t, ptr %10, i32 0, i32 1
  store ptr %13, ptr %14, align 8
  %15 = load ptr, ptr %8, align 8
  %16 = getelementptr inbounds %struct.write_options_t, ptr %10, i32 0, i32 2
  store ptr %15, ptr %16, align 8
  %17 = load ptr, ptr %7, align 8
  %18 = call i32 @wtap_block_foreach_option(ptr noundef %17, ptr noundef @write_block_option, ptr noundef %10)
  %19 = icmp ne i32 %18, 0
  br i1 %19, label %21, label %20

20:                                               ; preds = %4
  store i32 0, ptr %5, align 4
  br label %25

21:                                               ; preds = %4
  %22 = load ptr, ptr %6, align 8
  %23 = load ptr, ptr %9, align 8
  %24 = call i32 @pcapng_write_option_eofopt(ptr noundef %22, ptr noundef %23)
  store i32 %24, ptr %5, align 4
  br label %25

25:                                               ; preds = %21, %20
  %26 = load i32, ptr %5, align 4
  ret i32 %26
}

; Function Attrs: nounwind uwtable
define internal i32 @compute_options_size(ptr noundef %0, ptr noundef %1) #0 {
  %3 = alloca ptr, align 8
  %4 = alloca ptr, align 8
  %5 = alloca %struct.compute_options_size_t, align 8
  store ptr %0, ptr %3, align 8
  store ptr %1, ptr %4, align 8
  %6 = getelementptr inbounds %struct.compute_options_size_t, ptr %5, i32 0, i32 0
  store i32 0, ptr %6, align 8
  %7 = load ptr, ptr %4, align 8
  %8 = getelementptr inbounds %struct.compute_options_size_t, ptr %5, i32 0, i32 1
  store ptr %7, ptr %8, align 8
  %9 = load ptr, ptr %3, align 8
  %10 = call i32 @wtap_block_foreach_option(ptr noundef %9, ptr noundef @compute_block_option_size, ptr noundef %5)
  %11 = getelementptr inbounds %struct.compute_options_size_t, ptr %5, i32 0, i32 0
  %12 = load i32, ptr %11, align 8
  %13 = icmp ne i32 %12, 0
  br i1 %13, label %14, label %18

14:                                               ; preds = %2
  %15 = getelementptr inbounds %struct.compute_options_size_t, ptr %5, i32 0, i32 0
  %16 = load i32, ptr %15, align 8
  %17 = add i32 %16, 4
  store i32 %17, ptr %15, align 8
  br label %18

18:                                               ; preds = %14, %2
  %19 = getelementptr inbounds %struct.compute_options_size_t, ptr %5, i32 0, i32 0
  %20 = load i32, ptr %19, align 8
  ret i32 %20
}

; Function Attrs: nounwind uwtable
define internal i32 @pcapng_encap_is_ft_specific(i32 noundef %0) #0 {
  %2 = alloca i32, align 4
  %3 = alloca i32, align 4
  store i32 %0, ptr %3, align 4
  %4 = load i32, ptr %3, align 4
  switch i32 %4, label %6 [
    i32 203, label %5
  ]

5:                                                ; preds = %1
  store i32 1, ptr %2, align 4
  br label %7

6:                                                ; preds = %1
  store i32 0, ptr %2, align 4
  br label %7

7:                                                ; preds = %6, %5
  %8 = load i32, ptr %2, align 4
  ret i32 %8
}

; Function Attrs: nounwind uwtable
define internal i32 @pcapng_write_if_descr_block(ptr noundef %0, ptr noundef %1, ptr noundef %2) #0 {
  %4 = alloca i32, align 4
  %5 = alloca ptr, align 8
  %6 = alloca ptr, align 8
  %7 = alloca ptr, align 8
  %8 = alloca %struct.pcapng_block_header_s, align 4
  %9 = alloca %struct.pcapng_interface_description_block_s, align 4
  %10 = alloca i32, align 4
  %11 = alloca ptr, align 8
  %12 = alloca i32, align 4
  store ptr %0, ptr %5, align 8
  store ptr %1, ptr %6, align 8
  store ptr %2, ptr %7, align 8
  %13 = load ptr, ptr %6, align 8
  %14 = call ptr @wtap_block_get_mandatory_data(ptr noundef %13)
  store ptr %14, ptr %11, align 8
  br label %15

15:                                               ; preds = %3
  br label %16

16:                                               ; preds = %15
  %17 = load ptr, ptr %11, align 8
  %18 = getelementptr inbounds %struct.wtapng_if_descr_mandatory_s, ptr %17, i32 0, i32 0
  %19 = load i32, ptr %18, align 8
  %20 = call i32 @wtap_wtap_encap_to_pcap_encap(i32 noundef %19)
  store i32 %20, ptr %12, align 4
  %21 = load i32, ptr %12, align 4
  %22 = icmp eq i32 %21, -1
  br i1 %22, label %23, label %32

23:                                               ; preds = %16
  %24 = load ptr, ptr %11, align 8
  %25 = getelementptr inbounds %struct.wtapng_if_descr_mandatory_s, ptr %24, i32 0, i32 0
  %26 = load i32, ptr %25, align 8
  %27 = call i32 @pcapng_encap_is_ft_specific(i32 noundef %26)
  %28 = icmp ne i32 %27, 0
  br i1 %28, label %31, label %29

29:                                               ; preds = %23
  %30 = load ptr, ptr %7, align 8
  store i32 -8, ptr %30, align 4
  store i32 0, ptr %4, align 4
  br label %82

31:                                               ; preds = %23
  br label %32

32:                                               ; preds = %31, %16
  %33 = load ptr, ptr %6, align 8
  %34 = call i32 @compute_options_size(ptr noundef %33, ptr noundef @compute_idb_option_size)
  store i32 %34, ptr %10, align 4
  %35 = getelementptr inbounds %struct.pcapng_block_header_s, ptr %8, i32 0, i32 0
  store i32 1, ptr %35, align 4
  %36 = load i32, ptr %10, align 4
  %37 = zext i32 %36 to i64
  %38 = add i64 16, %37
  %39 = add i64 %38, 4
  %40 = trunc i64 %39 to i32
  %41 = getelementptr inbounds %struct.pcapng_block_header_s, ptr %8, i32 0, i32 1
  store i32 %40, ptr %41, align 4
  br label %42

42:                                               ; preds = %32
  br label %43

43:                                               ; preds = %42
  %44 = load ptr, ptr %5, align 8
  %45 = load ptr, ptr %7, align 8
  %46 = call i32 @wtap_dump_file_write(ptr noundef %44, ptr noundef %8, i64 noundef 8, ptr noundef %45)
  %47 = icmp ne i32 %46, 0
  br i1 %47, label %49, label %48

48:                                               ; preds = %43
  store i32 0, ptr %4, align 4
  br label %82

49:                                               ; preds = %43
  %50 = load i32, ptr %12, align 4
  %51 = trunc i32 %50 to i16
  %52 = getelementptr inbounds %struct.pcapng_interface_description_block_s, ptr %9, i32 0, i32 0
  store i16 %51, ptr %52, align 4
  %53 = getelementptr inbounds %struct.pcapng_interface_description_block_s, ptr %9, i32 0, i32 1
  store i16 0, ptr %53, align 2
  %54 = load ptr, ptr %11, align 8
  %55 = getelementptr inbounds %struct.wtapng_if_descr_mandatory_s, ptr %54, i32 0, i32 3
  %56 = load i32, ptr %55, align 4
  %57 = getelementptr inbounds %struct.pcapng_interface_description_block_s, ptr %9, i32 0, i32 2
  store i32 %56, ptr %57, align 4
  %58 = load ptr, ptr %5, align 8
  %59 = load ptr, ptr %7, align 8
  %60 = call i32 @wtap_dump_file_write(ptr noundef %58, ptr noundef %9, i64 noundef 8, ptr noundef %59)
  %61 = icmp ne i32 %60, 0
  br i1 %61, label %63, label %62

62:                                               ; preds = %49
  store i32 0, ptr %4, align 4
  br label %82

63:                                               ; preds = %49
  %64 = load i32, ptr %10, align 4
  %65 = icmp ne i32 %64, 0
  br i1 %65, label %66, label %74

66:                                               ; preds = %63
  %67 = load ptr, ptr %5, align 8
  %68 = load ptr, ptr %6, align 8
  %69 = load ptr, ptr %7, align 8
  %70 = call i32 @write_options(ptr noundef %67, ptr noundef %68, ptr noundef @write_wtap_idb_option, ptr noundef %69)
  %71 = icmp ne i32 %70, 0
  br i1 %71, label %73, label %72

72:                                               ; preds = %66
  store i32 0, ptr %4, align 4
  br label %82

73:                                               ; preds = %66
  br label %74

74:                                               ; preds = %73, %63
  %75 = load ptr, ptr %5, align 8
  %76 = getelementptr inbounds %struct.pcapng_block_header_s, ptr %8, i32 0, i32 1
  %77 = load ptr, ptr %7, align 8
  %78 = call i32 @wtap_dump_file_write(ptr noundef %75, ptr noundef %76, i64 noundef 4, ptr noundef %77)
  %79 = icmp ne i32 %78, 0
  br i1 %79, label %81, label %80

80:                                               ; preds = %74
  store i32 0, ptr %4, align 4
  br label %82

81:                                               ; preds = %74
  store i32 1, ptr %4, align 4
  br label %82

82:                                               ; preds = %81, %80, %72, %62, %48, %29
  %83 = load i32, ptr %4, align 4
  ret i32 %83
}