; Function Attrs: nounwind uwtable
define internal fastcc range(i32 0, 2) i32 @pcapng_write_if_descr_block(ptr noundef %0, ptr noundef %1, ptr noundef %2) unnamed_addr #0 {
  %4 = alloca %struct.pcapng_option_header, align 2
  %5 = alloca %struct.write_options_t, align 8
  %6 = alloca %struct.compute_options_size_t, align 8
  %7 = alloca %struct.pcapng_block_header_s, align 4
  %8 = alloca %struct.pcapng_interface_description_block_s, align 4
  %9 = tail call ptr @wtap_block_get_mandatory_data(ptr noundef %1) #16
  %10 = load i32, ptr %9, align 8
  %11 = tail call i32 @wtap_wtap_encap_to_pcap_encap(i32 noundef %10) #16
  %12 = icmp eq i32 %11, -1
  br i1 %12, label %13, label %16

13:                                               ; preds = %3
  %14 = load i32, ptr %9, align 8
  %cond.i.not = icmp eq i32 %14, 203
  br i1 %cond.i.not, label %16, label %15

15:                                               ; preds = %13
  store i32 -8, ptr %2, align 4
  br label %40

16:                                               ; preds = %13, %3
  call void @llvm.lifetime.start.p0(i64 16, ptr nonnull %6)
  store i32 0, ptr %6, align 8
  %17 = getelementptr inbounds nuw i8, ptr %6, i64 8
  store ptr @compute_idb_option_size, ptr %17, align 8
  %18 = call i32 @wtap_block_foreach_option(ptr noundef %1, ptr noundef nonnull @compute_block_option_size, ptr noundef nonnull %6) #16
  %19 = load i32, ptr %6, align 8
  %.not.i = icmp eq i32 %19, 0
  %20 = add i32 %19, 4
  %spec.select.i = select i1 %.not.i, i32 0, i32 %20
  call void @llvm.lifetime.end.p0(i64 16, ptr nonnull %6)
  store i32 1, ptr %7, align 4
  %21 = add i32 %spec.select.i, 20
  %22 = getelementptr inbounds nuw i8, ptr %7, i64 4
  store i32 %21, ptr %22, align 4
  %23 = call i32 @wtap_dump_file_write(ptr noundef %0, ptr noundef nonnull %7, i64 noundef 8, ptr noundef %2) #16
  %.not19 = icmp eq i32 %23, 0
  br i1 %.not19, label %40, label %24

24:                                               ; preds = %16
  %25 = trunc i32 %11 to i16
  store i16 %25, ptr %8, align 4
  %26 = getelementptr inbounds nuw i8, ptr %8, i64 2
  store i16 0, ptr %26, align 2
  %27 = getelementptr inbounds nuw i8, ptr %9, i64 20
  %28 = load i32, ptr %27, align 4
  %29 = getelementptr inbounds nuw i8, ptr %8, i64 4
  store i32 %28, ptr %29, align 4
  %30 = call i32 @wtap_dump_file_write(ptr noundef %0, ptr noundef nonnull %8, i64 noundef 8, ptr noundef %2) #16
  %.not20 = icmp eq i32 %30, 0
  br i1 %.not20, label %40, label %31

31:                                               ; preds = %24
  %.not21 = icmp eq i32 %spec.select.i, 0
  br i1 %.not21, label %38, label %32

32:                                               ; preds = %31
  call void @llvm.lifetime.start.p0(i64 24, ptr nonnull %5)
  store ptr %0, ptr %5, align 8
  %33 = getelementptr inbounds nuw i8, ptr %5, i64 8
  store ptr %2, ptr %33, align 8
  %34 = getelementptr inbounds nuw i8, ptr %5, i64 16
  store ptr @write_wtap_idb_option, ptr %34, align 8
  %35 = call i32 @wtap_block_foreach_option(ptr noundef %1, ptr noundef nonnull @write_block_option, ptr noundef nonnull %5) #16
  %.not.i24 = icmp eq i32 %35, 0
  br i1 %.not.i24, label %write_options.exit.thread, label %write_options.exit

write_options.exit.thread:                        ; preds = %32
  call void @llvm.lifetime.end.p0(i64 24, ptr nonnull %5)
  br label %40

write_options.exit:                               ; preds = %32
  call void @llvm.lifetime.start.p0(i64 4, ptr nonnull %4)
  store i16 0, ptr %4, align 2
  %36 = getelementptr inbounds nuw i8, ptr %4, i64 2
  store i16 0, ptr %36, align 2
  %37 = call i32 @wtap_dump_file_write(ptr noundef %0, ptr noundef nonnull %4, i64 noundef 4, ptr noundef %2) #16
  %.not.i.i.not = icmp eq i32 %37, 0
  call void @llvm.lifetime.end.p0(i64 4, ptr nonnull %4)
  call void @llvm.lifetime.end.p0(i64 24, ptr nonnull %5)
  br i1 %.not.i.i.not, label %40, label %38

38:                                               ; preds = %write_options.exit, %31
  %39 = call i32 @wtap_dump_file_write(ptr noundef %0, ptr noundef nonnull %22, i64 noundef 4, ptr noundef %2) #16
  %.not23 = icmp ne i32 %39, 0
  %. = zext i1 %.not23 to i32
  br label %40

40:                                               ; preds = %write_options.exit.thread, %38, %write_options.exit, %24, %16, %15
  %.0 = phi i32 [ 0, %15 ], [ 0, %16 ], [ 0, %24 ], [ 0, %write_options.exit ], [ %., %38 ], [ 0, %write_options.exit.thread ]
  ret i32 %.0
}